
Disassembly of pru1_firmware.obj:

DATA Section .data (Little Endian), 0x8 bytes at 0x0 
00000000                   data_sock:
00000000      00010000              .word 0x00010000
00000004                   units_elapsed:
00000004      00000000              .word 0x00000000

TEXT Section .text:timer_init (Little Endian), 0x3C bytes at 0x0 
00000000                   timer_init:
00000000     240110e0      LDI R0, 272
00000004     81002080      SBCO &R0.b0, C0,  0, 4
00000008     91402080      LBCO &R0.b0, C0,  64, 4
0000000c     1f02e0e0      SET R0, R0, 2
00000010     81402080      SBCO &R0.b0, C0,  64, 4
00000014     2403e8e0      LDI R0, 1000
00000018     910c2081      LBCO &R1.b0, C0,  12, 4
0000001c     00e0e1e0      ADD R0, R1, R0
00000020     814c2080      SBCO &R0.b0, C0,  76, 4
00000024     240002e0      LDI R0, 2
00000028     81442080      SBCO &R0.b0, C0,  68, 4
0000002c     91002080      LBCO &R0.b0, C0,  0, 4
00000030     1f00e0e0      SET R0, R0, 0
00000034     81002080      SBCO &R0.b0, C0,  0, 4
00000038     20c30000      JMP R3.w2

TEXT Section .text:main (Little Endian), 0x3D0 bytes at 0x0 
00000000                   main:
00000000     0508e2e2      SUB R2, R2, 8
00000004     240000e0      LDI R0, 0
00000008     e1002280      SBBO &R0.b0, R2, 0, 4
0000000c     15806060      XOR R0.b3, R0.b3, 128
00000010     240008e1      LDI R1, 8
00000014     15806161      XOR R1.b3, R1.b3, 128
00000018     58e1e018      QBLE $C$L2, R0, R1
0000001c                   $C$L1:
0000001c     f1002280      LBBO &R0.b0, R2, 0, 4
00000020     0903e0e1      LSL R1, R0, 3
00000024     240000ee      LDI R14, 0
00000028     e0e12e80      SBBO &R0.b0, R14, R1, 4
0000002c     f1002280      LBBO &R0.b0, R2, 0, 4
00000030     0903e0e1      LSL R1, R0, 3
00000034     240004ee      LDI R14, 4
00000038     240000e0      LDI R0, 0
0000003c     e0e12e80      SBBO &R0.b0, R14, R1, 4
00000040     f1002280      LBBO &R0.b0, R2, 0, 4
00000044     0902e0e0      LSL R0, R0, 2
00000048     240000e1      LDI R1, 0
0000004c     f1002181      LBBO &R1.b0, R1, 0, 4
00000050     00e0e1e1      ADD R1, R1, R0
00000054     240000e0      LDI R0, 0
00000058     e1482180      SBBO &R0.b0, R1, 72, 4
0000005c     f1002280      LBBO &R0.b0, R2, 0, 4
00000060     0101e0e0      ADD R0, R0, 1
00000064     e1002280      SBBO &R0.b0, R2, 0, 4
00000068     15806060      XOR R0.b3, R0.b3, 128
0000006c     240008e1      LDI R1, 8
00000070     15806161      XOR R1.b3, R1.b3, 128
00000074     66e1e0ea      QBGT $C$L1, R0, R1
00000078                   $C$L2:
00000078     230000c3      JAL R3.w2, 
0000007c     240005e0      LDI R0, 5
00000080     240004e1      LDI R1, 4
00000084     e1002180      SBBO &R0.b0, R1, 0, 4
00000088                   $C$L3:
00000088     240000e0      LDI R0, 0
0000008c     e1042280      SBBO &R0.b0, R2, 4, 4
00000090     2eff818e      XIN 255, &R14.b0, 4
00000094     240000e0      LDI R0, 0
00000098     f1002080      LBBO &R0.b0, R0, 0, 4
0000009c     15806060      XOR R0.b3, R0.b3, 128
000000a0     240004e1      LDI R1, 4
000000a4     f1002181      LBBO &R1.b0, R1, 0, 4
000000a8     15806161      XOR R1.b3, R1.b3, 128
000000ac     58e1e002      QBLE $C$L4, R0, R1
000000b0     240001ee      LDI R14, 1
000000b4                   $C$L4:
000000b4     e100228e      SBBO &R14.b0, R2, 0, 4
000000b8     240000e0      LDI R0, 0
000000bc     f1000000      LBBO &R0.b0, R0, 0, 1
000000c0     100000e0      AND R0, R0.b0, R0.b0
000000c4     c907e002      QBBC $C$L5, R0, 7
000000c8     2eff0120      XIN 254, &R0.b1, 3
000000cc                   $C$L5:
000000cc     f1002281      LBBO &R1.b0, R2, 0, 4
000000d0     08e0e1e0      LSL R0, R1, R0
000000d4     f1042281      LBBO &R1.b0, R2, 4, 4
000000d8     12e0e1e0      OR R0, R1, R0
000000dc     e1042280      SBBO &R0.b0, R2, 4, 4
000000e0     2eff818e      XIN 255, &R14.b0, 4
000000e4     240000e0      LDI R0, 0
000000e8     f1002080      LBBO &R0.b0, R0, 0, 4
000000ec     15806060      XOR R0.b3, R0.b3, 128
000000f0     24000ce1      LDI R1, 12
000000f4     f1002181      LBBO &R1.b0, R1, 0, 4
000000f8     15806161      XOR R1.b3, R1.b3, 128
000000fc     58e1e002      QBLE $C$L6, R0, R1
00000100     240001ee      LDI R14, 1
00000104                   $C$L6:
00000104     e100228e      SBBO &R14.b0, R2, 0, 4
00000108     240008e0      LDI R0, 8
0000010c     f1000000      LBBO &R0.b0, R0, 0, 1
00000110     100000e0      AND R0, R0.b0, R0.b0
00000114     c907e002      QBBC $C$L7, R0, 7
00000118     2eff0120      XIN 254, &R0.b1, 3
0000011c                   $C$L7:
0000011c     f1002281      LBBO &R1.b0, R2, 0, 4
00000120     08e0e1e0      LSL R0, R1, R0
00000124     f1042281      LBBO &R1.b0, R2, 4, 4
00000128     12e0e1e0      OR R0, R1, R0
0000012c     e1042280      SBBO &R0.b0, R2, 4, 4
00000130     2eff818e      XIN 255, &R14.b0, 4
00000134     240000e0      LDI R0, 0
00000138     f1002080      LBBO &R0.b0, R0, 0, 4
0000013c     15806060      XOR R0.b3, R0.b3, 128
00000140     240014e1      LDI R1, 20
00000144     f1002181      LBBO &R1.b0, R1, 0, 4
00000148     15806161      XOR R1.b3, R1.b3, 128
0000014c     58e1e002      QBLE $C$L8, R0, R1
00000150     240001ee      LDI R14, 1
00000154                   $C$L8:
00000154     e100228e      SBBO &R14.b0, R2, 0, 4
00000158     240010e0      LDI R0, 16
0000015c     f1000000      LBBO &R0.b0, R0, 0, 1
00000160     100000e0      AND R0, R0.b0, R0.b0
00000164     c907e002      QBBC $C$L9, R0, 7
00000168     2eff0120      XIN 254, &R0.b1, 3
0000016c                   $C$L9:
0000016c     f1002281      LBBO &R1.b0, R2, 0, 4
00000170     08e0e1e0      LSL R0, R1, R0
00000174     f1042281      LBBO &R1.b0, R2, 4, 4
00000178     12e0e1e0      OR R0, R1, R0
0000017c     e1042280      SBBO &R0.b0, R2, 4, 4
00000180     2eff818e      XIN 255, &R14.b0, 4
00000184     240000e0      LDI R0, 0
00000188     f1002080      LBBO &R0.b0, R0, 0, 4
0000018c     15806060      XOR R0.b3, R0.b3, 128
00000190     24001ce1      LDI R1, 28
00000194     f1002181      LBBO &R1.b0, R1, 0, 4
00000198     15806161      XOR R1.b3, R1.b3, 128
0000019c     58e1e002      QBLE $C$L10, R0, R1
000001a0     240001ee      LDI R14, 1
000001a4                   $C$L10:
000001a4     e100228e      SBBO &R14.b0, R2, 0, 4
000001a8     240018e0      LDI R0, 24
000001ac     f1000000      LBBO &R0.b0, R0, 0, 1
000001b0     100000e0      AND R0, R0.b0, R0.b0
000001b4     c907e002      QBBC $C$L11, R0, 7
000001b8     2eff0120      XIN 254, &R0.b1, 3
000001bc                   $C$L11:
000001bc     f1002281      LBBO &R1.b0, R2, 0, 4
000001c0     08e0e1e0      LSL R0, R1, R0
000001c4     f1042281      LBBO &R1.b0, R2, 4, 4
000001c8     12e0e1e0      OR R0, R1, R0
000001cc     e1042280      SBBO &R0.b0, R2, 4, 4
000001d0     2eff818e      XIN 255, &R14.b0, 4
000001d4     240000e0      LDI R0, 0
000001d8     f1002080      LBBO &R0.b0, R0, 0, 4
000001dc     15806060      XOR R0.b3, R0.b3, 128
000001e0     240024e1      LDI R1, 36
000001e4     f1002181      LBBO &R1.b0, R1, 0, 4
000001e8     15806161      XOR R1.b3, R1.b3, 128
000001ec     58e1e002      QBLE $C$L12, R0, R1
000001f0     240001ee      LDI R14, 1
000001f4                   $C$L12:
000001f4     e100228e      SBBO &R14.b0, R2, 0, 4
000001f8     240020e0      LDI R0, 32
000001fc     f1000000      LBBO &R0.b0, R0, 0, 1
00000200     100000e0      AND R0, R0.b0, R0.b0
00000204     c907e002      QBBC $C$L13, R0, 7
00000208     2eff0120      XIN 254, &R0.b1, 3
0000020c                   $C$L13:
0000020c     f1002281      LBBO &R1.b0, R2, 0, 4
00000210     08e0e1e0      LSL R0, R1, R0
00000214     f1042281      LBBO &R1.b0, R2, 4, 4
00000218     12e0e1e0      OR R0, R1, R0
0000021c     e1042280      SBBO &R0.b0, R2, 4, 4
00000220     2eff818e      XIN 255, &R14.b0, 4
00000224     240000e0      LDI R0, 0
00000228     f1002080      LBBO &R0.b0, R0, 0, 4
0000022c     15806060      XOR R0.b3, R0.b3, 128
00000230     24002ce1      LDI R1, 44
00000234     f1002181      LBBO &R1.b0, R1, 0, 4
00000238     15806161      XOR R1.b3, R1.b3, 128
0000023c     58e1e002      QBLE $C$L14, R0, R1
00000240     240001ee      LDI R14, 1
00000244                   $C$L14:
00000244     e100228e      SBBO &R14.b0, R2, 0, 4
00000248     240028e0      LDI R0, 40
0000024c     f1000000      LBBO &R0.b0, R0, 0, 1
00000250     100000e0      AND R0, R0.b0, R0.b0
00000254     c907e002      QBBC $C$L15, R0, 7
00000258     2eff0120      XIN 254, &R0.b1, 3
0000025c                   $C$L15:
0000025c     f1002281      LBBO &R1.b0, R2, 0, 4
00000260     08e0e1e0      LSL R0, R1, R0
00000264     f1042281      LBBO &R1.b0, R2, 4, 4
00000268     12e0e1e0      OR R0, R1, R0
0000026c     e1042280      SBBO &R0.b0, R2, 4, 4
00000270     2eff818e      XIN 255, &R14.b0, 4
00000274     240000e0      LDI R0, 0
00000278     f1002080      LBBO &R0.b0, R0, 0, 4
0000027c     15806060      XOR R0.b3, R0.b3, 128
00000280     240034e1      LDI R1, 52
00000284     f1002181      LBBO &R1.b0, R1, 0, 4
00000288     15806161      XOR R1.b3, R1.b3, 128
0000028c     58e1e002      QBLE $C$L16, R0, R1
00000290     240001ee      LDI R14, 1
00000294                   $C$L16:
00000294     e100228e      SBBO &R14.b0, R2, 0, 4
00000298     240030e0      LDI R0, 48
0000029c     f1000000      LBBO &R0.b0, R0, 0, 1
000002a0     100000e0      AND R0, R0.b0, R0.b0
000002a4     c907e002      QBBC $C$L17, R0, 7
000002a8     2eff0120      XIN 254, &R0.b1, 3
000002ac                   $C$L17:
000002ac     f1002281      LBBO &R1.b0, R2, 0, 4
000002b0     08e0e1e0      LSL R0, R1, R0
000002b4     f1042281      LBBO &R1.b0, R2, 4, 4
000002b8     12e0e1e0      OR R0, R1, R0
000002bc     e1042280      SBBO &R0.b0, R2, 4, 4
000002c0     2eff818e      XIN 255, &R14.b0, 4
000002c4     240000e0      LDI R0, 0
000002c8     f1002080      LBBO &R0.b0, R0, 0, 4
000002cc     15806060      XOR R0.b3, R0.b3, 128
000002d0     24003ce1      LDI R1, 60
000002d4     f1002181      LBBO &R1.b0, R1, 0, 4
000002d8     15806161      XOR R1.b3, R1.b3, 128
000002dc     58e1e002      QBLE $C$L18, R0, R1
000002e0     240001ee      LDI R14, 1
000002e4                   $C$L18:
000002e4     e100228e      SBBO &R14.b0, R2, 0, 4
000002e8     240038e0      LDI R0, 56
000002ec     f1000000      LBBO &R0.b0, R0, 0, 1
000002f0     100000e0      AND R0, R0.b0, R0.b0
000002f4     c907e002      QBBC $C$L19, R0, 7
000002f8     2eff0120      XIN 254, &R0.b1, 3
000002fc                   $C$L19:
000002fc     f1002281      LBBO &R1.b0, R2, 0, 4
00000300     08e0e1e0      LSL R0, R1, R0
00000304     f1042281      LBBO &R1.b0, R2, 4, 4
00000308     12e0e1e0      OR R0, R1, R0
0000030c     e1042280      SBBO &R0.b0, R2, 4, 4
00000310     f104229e      LBBO &R30.b0, R2, 4, 4
00000314     240000e0      LDI R0, 0
00000318     f1002081      LBBO &R1.b0, R0, 0, 4
0000031c     0101e1e1      ADD R1, R1, 1
00000320     e1002081      SBBO &R1.b0, R0, 0, 4
00000324     f1002080      LBBO &R0.b0, R0, 0, 4
00000328     6964e021      QBNE $C$L21, R0, 100
0000032c     240000e0      LDI R0, 0
00000330     240000e1      LDI R1, 0
00000334     e1002180      SBBO &R0.b0, R1, 0, 4
00000338     24020080      LDI R0.w0, 512
0000033c     90802080      LBCO &R0.b0, C0, R0.w0, 4
00000340     c911e01b      QBBC $C$L21, R0, 17
00000344     240011e0      LDI R0, 17
00000348     24002481      LDI R1.w0, 36
0000034c     80812080      SBCO &R0.b0, C0, R1.w0, 4
00000350     240000e0      LDI R0, 0
00000354     e1002280      SBBO &R0.b0, R2, 0, 4
00000358     15806060      XOR R0.b3, R0.b3, 128
0000035c     240008e1      LDI R1, 8
00000360     15806161      XOR R1.b3, R1.b3, 128
00000364     58e1e012      QBLE $C$L21, R0, R1
00000368                   $C$L20:
00000368     f1002280      LBBO &R0.b0, R2, 0, 4
0000036c     0902e0e0      LSL R0, R0, 2
00000370     240000e1      LDI R1, 0
00000374     f1002181      LBBO &R1.b0, R1, 0, 4
00000378     00e0e1e0      ADD R0, R1, R0
0000037c     f1482080      LBBO &R0.b0, R0, 72, 4
00000380     f1002281      LBBO &R1.b0, R2, 0, 4
00000384     0903e1e1      LSL R1, R1, 3
00000388     240004ee      LDI R14, 4
0000038c     e0e12e80      SBBO &R0.b0, R14, R1, 4
00000390     f1002280      LBBO &R0.b0, R2, 0, 4
00000394     0101e0e0      ADD R0, R0, 1
00000398     e1002280      SBBO &R0.b0, R2, 0, 4
0000039c     15806060      XOR R0.b3, R0.b3, 128
000003a0     240008e1      LDI R1, 8
000003a4     15806161      XOR R1.b3, R1.b3, 128
000003a8     66e1e0f0      QBGT $C$L20, R0, R1
000003ac                   $C$L21:
000003ac     91442080      LBCO &R0.b0, C0,  68, 4
000003b0     cf01e0ff      QBBC $C$L21, R0, 1
000003b4     2403e8e0      LDI R0, 1000
000003b8     910c2081      LBCO &R1.b0, C0,  12, 4
000003bc     00e0e1e0      ADD R0, R1, R0
000003c0     814c2080      SBCO &R0.b0, C0,  76, 4
000003c4     240002e0      LDI R0, 2
000003c8     81442080      SBCO &R0.b0, C0,  68, 4
000003cc     21000000      JMP 
