
Disassembly of pru0_firmware.obj:

DATA Section .data (Little Endian), 0x28 bytes at 0x0 
00000000                   data_sock:
00000000      00010000              .word 0x00010000
00000004                   shm_code:
00000004      00000000              .word 0x00000000
00000008                   shm_ret:
00000008      00000000              .word 0x00000000
0000000c                   ret_pointer:
0000000c      00000001              .word 0x00000001
00000010                   single_command:
00000010      00000000              .word 0x00000000
00000014                   single_command_2:
00000014      00000000              .word 0x00000000
00000018                   inst_pointer:
00000018      00000000              .word 0x00000000
0000001c                   is_executing:
0000001c      00000000              .word 0x00000000
00000020                   is_waiting:
00000020      00000000              .word 0x00000000
00000024                   pwm_val:
00000024      00000000              .word 0x00000000

TEXT Section .text:send_ret_value (Little Endian), 0x7C bytes at 0x0 
00000000                   send_ret_value:
00000000     0506e2e2      SUB R2, R2, 6
00000004     e10402c3      SBBO &R3.b2, R2, 4, 2
00000008     e100228e      SBBO &R14.b0, R2, 0, 4
0000000c     91042080      LBCO &R0.b0, C0,  4, 4
00000010     1d04e0e0      CLR R0, R0, 4
00000014     81042080      SBCO &R0.b0, C0,  4, 4
00000018     240000e0      LDI R0, 0
0000001c     f1002081      LBBO &R1.b0, R0, 0, 4
00000020     240000e0      LDI R0, 0
00000024     f1002080      LBBO &R0.b0, R0, 0, 4
00000028     0902e0ee      LSL R14, R0, 2
0000002c     f1002280      LBBO &R0.b0, R2, 0, 4
00000030     e0e12e80      SBBO &R0.b0, R14, R1, 4
00000034     240000e0      LDI R0, 0
00000038     f100208e      LBBO &R14.b0, R0, 0, 4
0000003c     2403ffef      LDI R15, 1023
00000040     230000c3      JAL R3.w2, 
00000044     0101eee0      ADD R0, R14, 1
00000048     240000e1      LDI R1, 0
0000004c     e1002180      SBBO &R0.b0, R1, 0, 4
00000050     240000e0      LDI R0, 0
00000054     f1002080      LBBO &R0.b0, R0, 0, 4
00000058     240000e1      LDI R1, 0
0000005c     f1002181      LBBO &R1.b0, R1, 0, 4
00000060     e1002180      SBBO &R0.b0, R1, 0, 4
00000064     91042080      LBCO &R0.b0, C0,  4, 4
00000068     1f04e0e0      SET R0, R0, 4
0000006c     81042080      SBCO &R0.b0, C0,  4, 4
00000070     f10402c3      LBBO &R3.b2, R2, 4, 2
00000074     0106e2e2      ADD R2, R2, 6
00000078     20c30000      JMP R3.w2

TEXT Section .text:get_second_word (Little Endian), 0x70 bytes at 0x0 
00000000                   get_second_word:
00000000     0504e2e2      SUB R2, R2, 4
00000004     240000e0      LDI R0, 0
00000008     f1002080      LBBO &R0.b0, R0, 0, 4
0000000c     6900e013      QBNE $C$L1, R0, 0
00000010     91042080      LBCO &R0.b0, C0,  4, 4
00000014     1d04e0e0      CLR R0, R0, 4
00000018     81042080      SBCO &R0.b0, C0,  4, 4
0000001c     240000e0      LDI R0, 0
00000020     f1002080      LBBO &R0.b0, R0, 0, 4
00000024     240000e1      LDI R1, 0
00000028     f1002181      LBBO &R1.b0, R1, 0, 4
0000002c     0902e1e1      LSL R1, R1, 2
00000030     f0e02180      LBBO &R0.b0, R1, R0, 4
00000034     e1002280      SBBO &R0.b0, R2, 0, 4
00000038     91042080      LBCO &R0.b0, C0,  4, 4
0000003c     1f04e0e0      SET R0, R0, 4
00000040     81042080      SBCO &R0.b0, C0,  4, 4
00000044     240000e0      LDI R0, 0
00000048     f1002081      LBBO &R1.b0, R0, 0, 4
0000004c     0101e1e1      ADD R1, R1, 1
00000050     e1002081      SBBO &R1.b0, R0, 0, 4
00000054     21000000      JMP 
00000058                   $C$L1:
00000058     240000e0      LDI R0, 0
0000005c     f1002080      LBBO &R0.b0, R0, 0, 4
00000060     e1002280      SBBO &R0.b0, R2, 0, 4
00000064                   $C$L2:
00000064     f100228e      LBBO &R14.b0, R2, 0, 4
00000068     0104e2e2      ADD R2, R2, 4
0000006c     20c30000      JMP R3.w2

TEXT Section .text:get_var_val (Little Endian), 0x74 bytes at 0x0 
00000000                   get_var_val:
00000000     0504e2e2      SUB R2, R2, 4
00000004     e100228e      SBBO &R14.b0, R2, 0, 4
00000008     f1002280      LBBO &R0.b0, R2, 0, 4
0000000c     15806060      XOR R0.b3, R0.b3, 128
00000010     2400efe1      LDI R1, 239
00000014     15806161      XOR R1.b3, R1.b3, 128
00000018     70e1e00f      QBGE $C$L3, R0, R1
0000001c     240100e0      LDI R0, 256
00000020     15806060      XOR R0.b3, R0.b3, 128
00000024     f1002281      LBBO &R1.b0, R2, 0, 4
00000028     15806161      XOR R1.b3, R1.b3, 128
0000002c     70e1e00f      QBGE $C$L4, R0, R1
00000030     f1002280      LBBO &R0.b0, R2, 0, 4
00000034     0501e0e0      SUB R0, R0, 1
00000038     e1002280      SBBO &R0.b0, R2, 0, 4
0000003c     05f0e0e0      SUB R0, R0, 240
00000040     e1002280      SBBO &R0.b0, R2, 0, 4
00000044     f1000200      LBBO &R0.b0, R2, 0, 1
00000048     0a00ffe0      LSR R0, R31, R0.b0
0000004c     1101e0ee      AND R14, R0, 1
00000050     21000000      JMP 
00000054                   $C$L3:
00000054     f1002280      LBBO &R0.b0, R2, 0, 4
00000058     0902e0e0      LSL R0, R0, 2
0000005c     240000e1      LDI R1, 0
00000060     f0e0218e      LBBO &R14.b0, R1, R0, 4
00000064     21000000      JMP 
00000068                   $C$L4:
00000068     2eff818e      XIN 255, &R14.b0, 4
0000006c                   $C$L5:
0000006c     0104e2e2      ADD R2, R2, 4
00000070     20c30000      JMP R3.w2

TEXT Section .text:dio_handler (Little Endian), 0x1BC bytes at 0x0 
00000000                   dio_handler:
00000000     051ae2e2      SUB R2, R2, 26
00000004     e11802c3      SBBO &R3.b2, R2, 24, 2
00000008     e104228f      SBBO &R15.b0, R2, 4, 4
0000000c     e100228e      SBBO &R14.b0, R2, 0, 4
00000010     f1002280      LBBO &R0.b0, R2, 0, 4
00000014     6901e01c      QBNE $C$L10, R0, 1
00000018     f1042280      LBBO &R0.b0, R2, 4, 4
0000001c     0b17e0e0      LSR R0, R0, 23
00000020     c900e008      QBBC $C$L6, R0, 0
00000024     f1042280      LBBO &R0.b0, R2, 4, 4
00000028     0b08e0e0      LSR R0, R0, 8
0000002c     11ffe0e0      AND R0, R0, 255
00000030     0902e0e0      LSL R0, R0, 2
00000034     240000e1      LDI R1, 0
00000038     f0e02180      LBBO &R0.b0, R1, R0, 4
0000003c     21000000      JMP 
00000040                   $C$L6:
00000040     f1042280      LBBO &R0.b0, R2, 4, 4
00000044     0b08e0e0      LSR R0, R0, 8
00000048     11ffe0e0      AND R0, R0, 255
0000004c                   $C$L7:
0000004c     e1082280      SBBO &R0.b0, R2, 8, 4
00000050     f1042280      LBBO &R0.b0, R2, 4, 4
00000054     0b16e0e0      LSR R0, R0, 22
00000058     c900e007      QBBC $C$L8, R0, 0
0000005c     f1042280      LBBO &R0.b0, R2, 4, 4
00000060     11ffe0e0      AND R0, R0, 255
00000064     0902e0e0      LSL R0, R0, 2
00000068     240000e1      LDI R1, 0
0000006c     f0e02180      LBBO &R0.b0, R1, R0, 4
00000070     21000000      JMP 
00000074                   $C$L8:
00000074     f1042280      LBBO &R0.b0, R2, 4, 4
00000078     11ffe0e0      AND R0, R0, 255
0000007c                   $C$L9:
0000007c     e10c2280      SBBO &R0.b0, R2, 12, 4
00000080     21000000      JMP 
00000084                   $C$L10:
00000084     6902e005      QBNE $C$L11, R0, 2
00000088     f1042280      LBBO &R0.b0, R2, 4, 4
0000008c     0b10e0e0      LSR R0, R0, 16
00000090     11ffe0e0      AND R0, R0, 255
00000094     21000000      JMP 
00000098                   $C$L11:
00000098     f1042280      LBBO &R0.b0, R2, 4, 4
0000009c     0b10e0e0      LSR R0, R0, 16
000000a0     11ffe0e0      AND R0, R0, 255
000000a4     0902e0e0      LSL R0, R0, 2
000000a8     240000e1      LDI R1, 0
000000ac     f0e02180      LBBO &R0.b0, R1, R0, 4
000000b0                   $C$L12:
000000b0     e1082280      SBBO &R0.b0, R2, 8, 4
000000b4     f1042280      LBBO &R0.b0, R2, 4, 4
000000b8     11ffe0e0      AND R0, R0, 255
000000bc     0902e0e0      LSL R0, R0, 2
000000c0     240000e1      LDI R1, 0
000000c4     f0e02180      LBBO &R0.b0, R1, R0, 4
000000c8     e1102280      SBBO &R0.b0, R2, 16, 4
000000cc     f1042280      LBBO &R0.b0, R2, 4, 4
000000d0     0b08e0e0      LSR R0, R0, 8
000000d4     11ffe0e0      AND R0, R0, 255
000000d8     0902e0e0      LSL R0, R0, 2
000000dc     f0e02181      LBBO &R1.b0, R1, R0, 4
000000e0     15806161      XOR R1.b3, R1.b3, 128
000000e4     f1102280      LBBO &R0.b0, R2, 16, 4
000000e8     15806060      XOR R0.b3, R0.b3, 128
000000ec     60e1e007      QBGT $C$L13, R0, R1
000000f0     240000e0      LDI R0, 0
000000f4     f1002080      LBBO &R0.b0, R0, 0, 4
000000f8     5100e02e      QBEQ $C$L21, R0, 0
000000fc     2eff818e      XIN 255, &R14.b0, 4
00000100     230000c3      JAL R3.w2, 
00000104     21000000      JMP 
00000108                   $C$L13:
00000108     f1102280      LBBO &R0.b0, R2, 16, 4
0000010c     f1042281      LBBO &R1.b0, R2, 4, 4
00000110     0b08e1e1      LSR R1, R1, 8
00000114     11ffe1e1      AND R1, R1, 255
00000118     00e0e1e0      ADD R0, R1, R0
0000011c     0101e0e0      ADD R0, R0, 1
00000120     e1142280      SBBO &R0.b0, R2, 20, 4
00000124     0902e0e0      LSL R0, R0, 2
00000128     240000e1      LDI R1, 0
0000012c     f0e02180      LBBO &R0.b0, R1, R0, 4
00000130     e10c2280      SBBO &R0.b0, R2, 12, 4
00000134                   $C$L14:
00000134     5100e00e      QBEQ $C$L16, R0, 0
00000138     f1082280      LBBO &R0.b0, R2, 8, 4
0000013c     15806060      XOR R0.b3, R0.b3, 128
00000140     24000ce1      LDI R1, 12
00000144     15806161      XOR R1.b3, R1.b3, 128
00000148     58e1e009      QBLE $C$L16, R0, R1
0000014c     f1080200      LBBO &R0.b0, R2, 8, 1
00000150     100000e0      AND R0, R0.b0, R0.b0
00000154     c907e002      QBBC $C$L15, R0, 7
00000158     2eff0120      XIN 254, &R0.b1, 3
0000015c                   $C$L15:
0000015c     240001e1      LDI R1, 1
00000160     08e0e1e0      LSL R0, R1, R0
00000164     12e0fefe      OR R30, R30, R0
00000168     21000000      JMP 
0000016c                   $C$L16:
0000016c     f1080200      LBBO &R0.b0, R2, 8, 1
00000170     100000e0      AND R0, R0.b0, R0.b0
00000174     c907e002      QBBC $C$L17, R0, 7
00000178     2eff0120      XIN 254, &R0.b1, 3
0000017c                   $C$L17:
0000017c     240001e1      LDI R1, 1
00000180     08e0e1e0      LSL R0, R1, R0
00000184     1600e0e0      NOT R0, R0, R0.b0
00000188     10e0fefe      AND R30, R30, R0
0000018c                   $C$L18:
0000018c     240000e0      LDI R0, 0
00000190     f1002080      LBBO &R0.b0, R0, 0, 4
00000194     5100e007      QBEQ $C$L21, R0, 0
00000198     f10c2280      LBBO &R0.b0, R2, 12, 4
0000019c     5100e003      QBEQ $C$L19, R0, 0
000001a0     240001ee      LDI R14, 1
000001a4     21000000      JMP 
000001a8                   $C$L19:
000001a8     2eff818e      XIN 255, &R14.b0, 4
000001ac                   $C$L20:
000001ac     230000c3      JAL R3.w2, 
000001b0                   $C$L21:
000001b0     f11802c3      LBBO &R3.b2, R2, 24, 2
000001b4     011ae2e2      ADD R2, R2, 26
000001b8     20c30000      JMP R3.w2

TEXT Section .text:pwm_handler (Little Endian), 0x168 bytes at 0x0 
00000000                   pwm_handler:
00000000     051ae2e2      SUB R2, R2, 26
00000004     e11802c3      SBBO &R3.b2, R2, 24, 2
00000008     e104228f      SBBO &R15.b0, R2, 4, 4
0000000c     e100228e      SBBO &R14.b0, R2, 0, 4
00000010     f1002280      LBBO &R0.b0, R2, 0, 4
00000014     6904e01c      QBNE $C$L10, R0, 4
00000018     f1042280      LBBO &R0.b0, R2, 4, 4
0000001c     0b17e0e0      LSR R0, R0, 23
00000020     c900e008      QBBC $C$L6, R0, 0
00000024     f1042280      LBBO &R0.b0, R2, 4, 4
00000028     0b08e0e0      LSR R0, R0, 8
0000002c     11ffe0e0      AND R0, R0, 255
00000030     0902e0e0      LSL R0, R0, 2
00000034     240000e1      LDI R1, 0
00000038     f0e02180      LBBO &R0.b0, R1, R0, 4
0000003c     21000000      JMP 
00000040                   $C$L22:
00000040     f1042280      LBBO &R0.b0, R2, 4, 4
00000044     0b08e0e0      LSR R0, R0, 8
00000048     11ffe0e0      AND R0, R0, 255
0000004c                   $C$L23:
0000004c     e1082280      SBBO &R0.b0, R2, 8, 4
00000050     f1042280      LBBO &R0.b0, R2, 4, 4
00000054     0b16e0e0      LSR R0, R0, 22
00000058     c900e007      QBBC $C$L8, R0, 0
0000005c     f1042280      LBBO &R0.b0, R2, 4, 4
00000060     11ffe0e0      AND R0, R0, 255
00000064     0902e0e0      LSL R0, R0, 2
00000068     240000e1      LDI R1, 0
0000006c     f0e02180      LBBO &R0.b0, R1, R0, 4
00000070     21000000      JMP 
00000074                   $C$L24:
00000074     f1042280      LBBO &R0.b0, R2, 4, 4
00000078     11ffe0e0      AND R0, R0, 255
0000007c                   $C$L25:
0000007c     e10c2280      SBBO &R0.b0, R2, 12, 4
00000080     21000000      JMP 
00000084                   $C$L26:
00000084     6905e005      QBNE $C$L11, R0, 5
00000088     f1042280      LBBO &R0.b0, R2, 4, 4
0000008c     0b10e0e0      LSR R0, R0, 16
00000090     11ffe0e0      AND R0, R0, 255
00000094     21000000      JMP 
00000098                   $C$L27:
00000098     f1042280      LBBO &R0.b0, R2, 4, 4
0000009c     0b10e0e0      LSR R0, R0, 16
000000a0     11ffe0e0      AND R0, R0, 255
000000a4     0902e0e0      LSL R0, R0, 2
000000a8     240000e1      LDI R1, 0
000000ac     f0e02180      LBBO &R0.b0, R1, R0, 4
000000b0                   $C$L28:
000000b0     e1082280      SBBO &R0.b0, R2, 8, 4
000000b4     f1042280      LBBO &R0.b0, R2, 4, 4
000000b8     11ffe0e0      AND R0, R0, 255
000000bc     0902e0e0      LSL R0, R0, 2
000000c0     240000e1      LDI R1, 0
000000c4     f0e02180      LBBO &R0.b0, R1, R0, 4
000000c8     e1102280      SBBO &R0.b0, R2, 16, 4
000000cc     f1042280      LBBO &R0.b0, R2, 4, 4
000000d0     0b08e0e0      LSR R0, R0, 8
000000d4     11ffe0e0      AND R0, R0, 255
000000d8     0902e0e0      LSL R0, R0, 2
000000dc     f0e02181      LBBO &R1.b0, R1, R0, 4
000000e0     15806161      XOR R1.b3, R1.b3, 128
000000e4     f1102280      LBBO &R0.b0, R2, 16, 4
000000e8     15806060      XOR R0.b3, R0.b3, 128
000000ec     60e1e007      QBGT $C$L13, R0, R1
000000f0     240000e0      LDI R0, 0
000000f4     f1002080      LBBO &R0.b0, R0, 0, 4
000000f8     5100e019      QBEQ $C$L15, R0, 0
000000fc     2eff818e      XIN 255, &R14.b0, 4
00000100     230000c3      JAL R3.w2, 
00000104     21000000      JMP 
00000108                   $C$L29:
00000108     f1102280      LBBO &R0.b0, R2, 16, 4
0000010c     f1042281      LBBO &R1.b0, R2, 4, 4
00000110     0b08e1e1      LSR R1, R1, 8
00000114     11ffe1e1      AND R1, R1, 255
00000118     00e0e1e0      ADD R0, R1, R0
0000011c     0101e0e0      ADD R0, R0, 1
00000120     e1142280      SBBO &R0.b0, R2, 20, 4
00000124     0902e0e0      LSL R0, R0, 2
00000128     240000e1      LDI R1, 0
0000012c     f0e02180      LBBO &R0.b0, R1, R0, 4
00000130     e10c2280      SBBO &R0.b0, R2, 12, 4
00000134                   $C$L30:
00000134     f1082280      LBBO &R0.b0, R2, 8, 4
00000138     0902e0e0      LSL R0, R0, 2
0000013c     240000e1      LDI R1, 0
00000140     f1002181      LBBO &R1.b0, R1, 0, 4
00000144     00e0e1e1      ADD R1, R1, R0
00000148     f10c2280      LBBO &R0.b0, R2, 12, 4
0000014c     e1482180      SBBO &R0.b0, R1, 72, 4
00000150     240021ff      LDI R31, 33
00000154     f10c228e      LBBO &R14.b0, R2, 12, 4
00000158     230000c3      JAL R3.w2, 
0000015c                   $C$L31:
0000015c     f11802c3      LBBO &R3.b2, R2, 24, 2
00000160     011ae2e2      ADD R2, R2, 26
00000164     20c30000      JMP R3.w2

TEXT Section .text:set_handler (Little Endian), 0x2B0 bytes at 0x0 
00000000                   set_handler:
00000000     0522e2e2      SUB R2, R2, 34
00000004     e12002c3      SBBO &R3.b2, R2, 32, 2
00000008     e104228f      SBBO &R15.b0, R2, 4, 4
0000000c     e100228e      SBBO &R14.b0, R2, 0, 4
00000010     f1002280      LBBO &R0.b0, R2, 0, 4
00000014     6910e014      QBNE $C$L2, R0, 16
00000018     f1042280      LBBO &R0.b0, R2, 4, 4
0000001c     0b10e0e0      LSR R0, R0, 16
00000020     11ffe0e0      AND R0, R0, 255
00000024     e10c2280      SBBO &R0.b0, R2, 12, 4
00000028     24ffffe0      LDI R0, 65535
0000002c     f1042281      LBBO &R1.b0, R2, 4, 4
00000030     10e0e1e0      AND R0, R1, R0
00000034     e1082280      SBBO &R0.b0, R2, 8, 4
00000038     f10c2280      LBBO &R0.b0, R2, 12, 4
0000003c     0902e0e1      LSL R1, R0, 2
00000040     240000ee      LDI R14, 0
00000044     f1082280      LBBO &R0.b0, R2, 8, 4
00000048     e0e12e80      SBBO &R0.b0, R14, R1, 4
0000004c     240000e0      LDI R0, 0
00000050     f1002080      LBBO &R0.b0, R0, 0, 4
00000054     5100e094      QBEQ $C$L41, R0, 0
00000058     f108228e      LBBO &R14.b0, R2, 8, 4
0000005c     230000c3      JAL R3.w2, 
00000060     21000000      JMP 
00000064                   $C$L32:
00000064     6911e016      QBNE $C$L33, R0, 17
00000068     f1042280      LBBO &R0.b0, R2, 4, 4
0000006c     0b10e0e0      LSR R0, R0, 16
00000070     11ffe0e0      AND R0, R0, 255
00000074     e10c2280      SBBO &R0.b0, R2, 12, 4
00000078     f1042280      LBBO &R0.b0, R2, 4, 4
0000007c     11ffe0e0      AND R0, R0, 255
00000080     e1102280      SBBO &R0.b0, R2, 16, 4
00000084     f110228e      LBBO &R14.b0, R2, 16, 4
00000088     230000c3      JAL R3.w2, 
0000008c     f10c2280      LBBO &R0.b0, R2, 12, 4
00000090     0902e0e0      LSL R0, R0, 2
00000094     240000e1      LDI R1, 0
00000098     e0e0218e      SBBO &R14.b0, R1, R0, 4
0000009c     240000e0      LDI R0, 0
000000a0     f1002080      LBBO &R0.b0, R0, 0, 4
000000a4     5100e080      QBEQ $C$L41, R0, 0
000000a8     f10c2280      LBBO &R0.b0, R2, 12, 4
000000ac     0902e0e0      LSL R0, R0, 2
000000b0     f0e0218e      LBBO &R14.b0, R1, R0, 4
000000b4     230000c3      JAL R3.w2, 
000000b8     21000000      JMP 
000000bc                   $C$L33:
000000bc     f1042280      LBBO &R0.b0, R2, 4, 4
000000c0     0b10e0e0      LSR R0, R0, 16
000000c4     11ffe0e0      AND R0, R0, 255
000000c8     0b06e0e0      LSR R0, R0, 6
000000cc     e1142280      SBBO &R0.b0, R2, 20, 4
000000d0     6901e005      QBNE $C$L34, R0, 1
000000d4     f1042280      LBBO &R0.b0, R2, 4, 4
000000d8     11ffe0e0      AND R0, R0, 255
000000dc     e10c2280      SBBO &R0.b0, R2, 12, 4
000000e0     21000000      JMP 
000000e4                   $C$L34:
000000e4     f1042280      LBBO &R0.b0, R2, 4, 4
000000e8     11ffe0e0      AND R0, R0, 255
000000ec     0902e0e0      LSL R0, R0, 2
000000f0     240000e1      LDI R1, 0
000000f4     f0e02180      LBBO &R0.b0, R1, R0, 4
000000f8     e11c2280      SBBO &R0.b0, R2, 28, 4
000000fc     f1042280      LBBO &R0.b0, R2, 4, 4
00000100     0b08e0e0      LSR R0, R0, 8
00000104     11ffe0e0      AND R0, R0, 255
00000108     0902e0e0      LSL R0, R0, 2
0000010c     f0e02181      LBBO &R1.b0, R1, R0, 4
00000110     15806161      XOR R1.b3, R1.b3, 128
00000114     f11c2280      LBBO &R0.b0, R2, 28, 4
00000118     15806060      XOR R0.b3, R0.b3, 128
0000011c     60e1e007      QBGT $C$L35, R0, R1
00000120     240000e0      LDI R0, 0
00000124     f1002080      LBBO &R0.b0, R0, 0, 4
00000128     5100e05f      QBEQ $C$L41, R0, 0
0000012c     2eff818e      XIN 255, &R14.b0, 4
00000130     230000c3      JAL R3.w2, 
00000134     21000000      JMP 
00000138                   $C$L35:
00000138     f11c2280      LBBO &R0.b0, R2, 28, 4
0000013c     f1042281      LBBO &R1.b0, R2, 4, 4
00000140     0b08e1e1      LSR R1, R1, 8
00000144     11ffe1e1      AND R1, R1, 255
00000148     00e0e1e0      ADD R0, R1, R0
0000014c     0101e0e0      ADD R0, R0, 1
00000150     e10c2280      SBBO &R0.b0, R2, 12, 4
00000154                   $C$L36:
00000154     f1042280      LBBO &R0.b0, R2, 4, 4
00000158     e1182280      SBBO &R0.b0, R2, 24, 4
0000015c     230000c3      JAL R3.w2, 
00000160     e104228e      SBBO &R14.b0, R2, 4, 4
00000164     f1182280      LBBO &R0.b0, R2, 24, 4
00000168     0b10e0e0      LSR R0, R0, 16
0000016c     11ffe0e0      AND R0, R0, 255
00000170     0b04e0e0      LSR R0, R0, 4
00000174     1103e0e0      AND R0, R0, 3
00000178     e1142280      SBBO &R0.b0, R2, 20, 4
0000017c     6900e00e      QBNE $C$L37, R0, 0
00000180     f1042280      LBBO &R0.b0, R2, 4, 4
00000184     11ffe0e0      AND R0, R0, 255
00000188     e1082280      SBBO &R0.b0, R2, 8, 4
0000018c     f10c2280      LBBO &R0.b0, R2, 12, 4
00000190     0902e0e1      LSL R1, R0, 2
00000194     240000ee      LDI R14, 0
00000198     f1082280      LBBO &R0.b0, R2, 8, 4
0000019c     e0e12e80      SBBO &R0.b0, R14, R1, 4
000001a0     240000e0      LDI R0, 0
000001a4     f1002080      LBBO &R0.b0, R0, 0, 4
000001a8     5100e003      QBEQ $C$L37, R0, 0
000001ac     f108228e      LBBO &R14.b0, R2, 8, 4
000001b0     230000c3      JAL R3.w2, 
000001b4                   $C$L37:
000001b4     f1142280      LBBO &R0.b0, R2, 20, 4
000001b8     6901e012      QBNE $C$L38, R0, 1
000001bc     f1042280      LBBO &R0.b0, R2, 4, 4
000001c0     11ffe0e0      AND R0, R0, 255
000001c4     e1102280      SBBO &R0.b0, R2, 16, 4
000001c8     f110228e      LBBO &R14.b0, R2, 16, 4
000001cc     230000c3      JAL R3.w2, 
000001d0     f10c2280      LBBO &R0.b0, R2, 12, 4
000001d4     0902e0e0      LSL R0, R0, 2
000001d8     240000e1      LDI R1, 0
000001dc     e0e0218e      SBBO &R14.b0, R1, R0, 4
000001e0     240000e0      LDI R0, 0
000001e4     f1002080      LBBO &R0.b0, R0, 0, 4
000001e8     5100e02f      QBEQ $C$L41, R0, 0
000001ec     f10c2280      LBBO &R0.b0, R2, 12, 4
000001f0     0902e0e0      LSL R0, R0, 2
000001f4     f0e0218e      LBBO &R14.b0, R1, R0, 4
000001f8     230000c3      JAL R3.w2, 
000001fc     21000000      JMP 
00000200                   $C$L38:
00000200     f1042280      LBBO &R0.b0, R2, 4, 4
00000204     11ffe0e0      AND R0, R0, 255
00000208     0902e0e0      LSL R0, R0, 2
0000020c     240000e1      LDI R1, 0
00000210     f0e02180      LBBO &R0.b0, R1, R0, 4
00000214     e11c2280      SBBO &R0.b0, R2, 28, 4
00000218     f1042280      LBBO &R0.b0, R2, 4, 4
0000021c     0b08e0e0      LSR R0, R0, 8
00000220     11ffe0e0      AND R0, R0, 255
00000224     0902e0e0      LSL R0, R0, 2
00000228     f0e02181      LBBO &R1.b0, R1, R0, 4
0000022c     15806161      XOR R1.b3, R1.b3, 128
00000230     f11c2280      LBBO &R0.b0, R2, 28, 4
00000234     15806060      XOR R0.b3, R0.b3, 128
00000238     60e1e007      QBGT $C$L39, R0, R1
0000023c     240000e0      LDI R0, 0
00000240     f1002080      LBBO &R0.b0, R0, 0, 4
00000244     5100e018      QBEQ $C$L41, R0, 0
00000248     2eff818e      XIN 255, &R14.b0, 4
0000024c     230000c3      JAL R3.w2, 
00000250     21000000      JMP 
00000254                   $C$L39:
00000254     f11c2280      LBBO &R0.b0, R2, 28, 4
00000258     f1042281      LBBO &R1.b0, R2, 4, 4
0000025c     0b08e1e1      LSR R1, R1, 8
00000260     11ffe1e1      AND R1, R1, 255
00000264     00e0e1e0      ADD R0, R1, R0
00000268     0101e0e0      ADD R0, R0, 1
0000026c     e1102280      SBBO &R0.b0, R2, 16, 4
00000270     f110228e      LBBO &R14.b0, R2, 16, 4
00000274     230000c3      JAL R3.w2, 
00000278     f10c2280      LBBO &R0.b0, R2, 12, 4
0000027c     0902e0e0      LSL R0, R0, 2
00000280     240000e1      LDI R1, 0
00000284     e0e0218e      SBBO &R14.b0, R1, R0, 4
00000288     240000e0      LDI R0, 0
0000028c     f1002080      LBBO &R0.b0, R0, 0, 4
00000290     5100e005      QBEQ $C$L41, R0, 0
00000294     f10c2280      LBBO &R0.b0, R2, 12, 4
00000298     0902e0e0      LSL R0, R0, 2
0000029c     f0e0218e      LBBO &R14.b0, R1, R0, 4
000002a0     230000c3      JAL R3.w2, 
000002a4                   $C$L42:
000002a4                   $C$L40:
000002a4                   $C$L41:
000002a4     f12002c3      LBBO &R3.b2, R2, 32, 2
000002a8     0122e2e2      ADD R2, R2, 34
000002ac     20c30000      JMP R3.w2

TEXT Section .text:array_dec_handler (Little Endian), 0x78 bytes at 0x0 
00000000                   array_dec_handler:
00000000     0512e2e2      SUB R2, R2, 18
00000004     e11002c3      SBBO &R3.b2, R2, 16, 2
00000008     e104228f      SBBO &R15.b0, R2, 4, 4
0000000c     e100228e      SBBO &R14.b0, R2, 0, 4
00000010     f1042280      LBBO &R0.b0, R2, 4, 4
00000014     0b08e0e0      LSR R0, R0, 8
00000018     11ffe0e0      AND R0, R0, 255
0000001c     e1082280      SBBO &R0.b0, R2, 8, 4
00000020     f1042280      LBBO &R0.b0, R2, 4, 4
00000024     0b17e0e0      LSR R0, R0, 23
00000028     c900e007      QBBC $C$L43, R0, 0
0000002c     f1042280      LBBO &R0.b0, R2, 4, 4
00000030     11ffe0e0      AND R0, R0, 255
00000034     0902e0e0      LSL R0, R0, 2
00000038     240000e1      LDI R1, 0
0000003c     f0e02180      LBBO &R0.b0, R1, R0, 4
00000040     21000000      JMP 
00000044                   $C$L43:
00000044     f1042280      LBBO &R0.b0, R2, 4, 4
00000048     11ffe0e0      AND R0, R0, 255
0000004c                   $C$L44:
0000004c     e10c2280      SBBO &R0.b0, R2, 12, 4
00000050     f1082280      LBBO &R0.b0, R2, 8, 4
00000054     0902e0e1      LSL R1, R0, 2
00000058     240000ee      LDI R14, 0
0000005c     f10c2280      LBBO &R0.b0, R2, 12, 4
00000060     e0e12e80      SBBO &R0.b0, R14, R1, 4
00000064     f10c228e      LBBO &R14.b0, R2, 12, 4
00000068     230000c3      JAL R3.w2, 
0000006c     f11002c3      LBBO &R3.b2, R2, 16, 2
00000070     0112e2e2      ADD R2, R2, 18
00000074     20c30000      JMP R3.w2

TEXT Section .text:wait_goto_get_handler (Little Endian), 0x114 bytes at 0x0 
00000000                   wait_goto_get_handler:
00000000     0516e2e2      SUB R2, R2, 22
00000004     e11402c3      SBBO &R3.b2, R2, 20, 2
00000008     e104228f      SBBO &R15.b0, R2, 4, 4
0000000c     e100228e      SBBO &R14.b0, R2, 0, 4
00000010     f1042280      LBBO &R0.b0, R2, 4, 4
00000014     0b10e0e0      LSR R0, R0, 16
00000018     11ffe0e0      AND R0, R0, 255
0000001c     0b06e0e0      LSR R0, R0, 6
00000020     e1082280      SBBO &R0.b0, R2, 8, 4
00000024     6900e006      QBNE $C$L45, R0, 0
00000028     24ffffe0      LDI R0, 65535
0000002c     f1042281      LBBO &R1.b0, R2, 4, 4
00000030     10e0e1e0      AND R0, R1, R0
00000034     e10c2280      SBBO &R0.b0, R2, 12, 4
00000038     21000000      JMP 
0000003c                   $C$L45:
0000003c     6901e006      QBNE $C$L3, R0, 1
00000040     f1042280      LBBO &R0.b0, R2, 4, 4
00000044     11ffe0ee      AND R14, R0, 255
00000048     230000c3      JAL R3.w2, 
0000004c     e10c228e      SBBO &R14.b0, R2, 12, 4
00000050     21000000      JMP 
00000054                   $C$L46:
00000054     f1042280      LBBO &R0.b0, R2, 4, 4
00000058     11ffe0e0      AND R0, R0, 255
0000005c     0902e0e0      LSL R0, R0, 2
00000060     240000e1      LDI R1, 0
00000064     f0e02180      LBBO &R0.b0, R1, R0, 4
00000068     e1102280      SBBO &R0.b0, R2, 16, 4
0000006c     f1042280      LBBO &R0.b0, R2, 4, 4
00000070     0b08e0e0      LSR R0, R0, 8
00000074     11ffe0e0      AND R0, R0, 255
00000078     0902e0e0      LSL R0, R0, 2
0000007c     f0e02181      LBBO &R1.b0, R1, R0, 4
00000080     15806161      XOR R1.b3, R1.b3, 128
00000084     f1102280      LBBO &R0.b0, R2, 16, 4
00000088     15806060      XOR R0.b3, R0.b3, 128
0000008c     60e1e007      QBGT $C$L47, R0, R1
00000090     240000e0      LDI R0, 0
00000094     f1002080      LBBO &R0.b0, R0, 0, 4
00000098     5100e01c      QBEQ $C$L13, R0, 0
0000009c     2eff818e      XIN 255, &R14.b0, 4
000000a0     230000c3      JAL R3.w2, 
000000a4     21000000      JMP 
000000a8                   $C$L47:
000000a8     f1102280      LBBO &R0.b0, R2, 16, 4
000000ac     f1042281      LBBO &R1.b0, R2, 4, 4
000000b0     0b08e1e1      LSR R1, R1, 8
000000b4     11ffe1e1      AND R1, R1, 255
000000b8     00e0e1e0      ADD R0, R1, R0
000000bc     0101e0ee      ADD R14, R0, 1
000000c0     230000c3      JAL R3.w2, 
000000c4     e10c228e      SBBO &R14.b0, R2, 12, 4
000000c8                   $C$L48:
000000c8     f1002280      LBBO &R0.b0, R2, 0, 4
000000cc     6914e004      QBNE $C$L49, R0, 20
000000d0     f10c228e      LBBO &R14.b0, R2, 12, 4
000000d4     230000c3      JAL R3.w2, 
000000d8     21000000      JMP 
000000dc                   $C$L49:
000000dc     6915e005      QBNE $C$L50, R0, 21
000000e0     f10c2280      LBBO &R0.b0, R2, 12, 4
000000e4     240000e1      LDI R1, 0
000000e8     e1002180      SBBO &R0.b0, R1, 0, 4
000000ec     21000000      JMP 
000000f0                   $C$L50:
000000f0     6916e006      QBNE $C$L13, R0, 22
000000f4     240000e0      LDI R0, 0
000000f8     f1002080      LBBO &R0.b0, R0, 0, 4
000000fc     5100e003      QBEQ $C$L13, R0, 0
00000100     f10c228e      LBBO &R14.b0, R2, 12, 4
00000104     230000c3      JAL R3.w2, 
00000108                   $C$L51:
00000108     f11402c3      LBBO &R3.b2, R2, 20, 2
0000010c     0116e2e2      ADD R2, R2, 22
00000110     20c30000      JMP R3.w2

TEXT Section .text:if_handler (Little Endian), 0x378 bytes at 0x0 
00000000                   if_handler:
00000000     052ae2e2      SUB R2, R2, 42
00000004     e12802c3      SBBO &R3.b2, R2, 40, 2
00000008     e104228f      SBBO &R15.b0, R2, 4, 4
0000000c     e100228e      SBBO &R14.b0, R2, 0, 4
00000010     f1042280      LBBO &R0.b0, R2, 4, 4
00000014     0b10e0e0      LSR R0, R0, 16
00000018     11ffe0e0      AND R0, R0, 255
0000001c     0b06e0e0      LSR R0, R0, 6
00000020     e1142280      SBBO &R0.b0, R2, 20, 4
00000024     f1002280      LBBO &R0.b0, R2, 0, 4
00000028     110fe0e0      AND R0, R0, 15
0000002c     e1182280      SBBO &R0.b0, R2, 24, 4
00000030     f1142280      LBBO &R0.b0, R2, 20, 4
00000034     6900e005      QBNE $C$L52, R0, 0
00000038     f1042280      LBBO &R0.b0, R2, 4, 4
0000003c     11ffe0e0      AND R0, R0, 255
00000040     e1082280      SBBO &R0.b0, R2, 8, 4
00000044     21000000      JMP 
00000048                   $C$L52:
00000048     6901e006      QBNE $C$L53, R0, 1
0000004c     f1042280      LBBO &R0.b0, R2, 4, 4
00000050     11ffe0ee      AND R14, R0, 255
00000054     230000c3      JAL R3.w2, 
00000058     e108228e      SBBO &R14.b0, R2, 8, 4
0000005c     21000000      JMP 
00000060                   $C$L53:
00000060     f1042280      LBBO &R0.b0, R2, 4, 4
00000064     11ffe0e0      AND R0, R0, 255
00000068     0902e0e0      LSL R0, R0, 2
0000006c     240000e1      LDI R1, 0
00000070     f0e02180      LBBO &R0.b0, R1, R0, 4
00000074     e1242280      SBBO &R0.b0, R2, 36, 4
00000078     f1042280      LBBO &R0.b0, R2, 4, 4
0000007c     0b08e0e0      LSR R0, R0, 8
00000080     11ffe0e0      AND R0, R0, 255
00000084     0902e0e0      LSL R0, R0, 2
00000088     f0e02181      LBBO &R1.b0, R1, R0, 4
0000008c     15806161      XOR R1.b3, R1.b3, 128
00000090     f1242280      LBBO &R0.b0, R2, 36, 4
00000094     15806060      XOR R0.b3, R0.b3, 128
00000098     60e1e007      QBGT $C$L54, R0, R1
0000009c     240000e0      LDI R0, 0
000000a0     f1002080      LBBO &R0.b0, R0, 0, 4
000000a4     5100e0b2      QBEQ $C$L78, R0, 0
000000a8     2eff818e      XIN 255, &R14.b0, 4
000000ac     230000c3      JAL R3.w2, 
000000b0     21000000      JMP 
000000b4                   $C$L54:
000000b4     f1242280      LBBO &R0.b0, R2, 36, 4
000000b8     f1042281      LBBO &R1.b0, R2, 4, 4
000000bc     0b08e1e1      LSR R1, R1, 8
000000c0     11ffe1e1      AND R1, R1, 255
000000c4     00e0e1e0      ADD R0, R1, R0
000000c8     0101e0ee      ADD R14, R0, 1
000000cc     230000c3      JAL R3.w2, 
000000d0     e108228e      SBBO &R14.b0, R2, 8, 4
000000d4                   $C$L55:
000000d4     f1042280      LBBO &R0.b0, R2, 4, 4
000000d8     e1202280      SBBO &R0.b0, R2, 32, 4
000000dc     230000c3      JAL R3.w2, 
000000e0     e104228e      SBBO &R14.b0, R2, 4, 4
000000e4     f1202280      LBBO &R0.b0, R2, 32, 4
000000e8     0b10e0e0      LSR R0, R0, 16
000000ec     11ffe0e0      AND R0, R0, 255
000000f0     0b04e0e0      LSR R0, R0, 4
000000f4     1103e0e0      AND R0, R0, 3
000000f8     e1142280      SBBO &R0.b0, R2, 20, 4
000000fc     6900e005      QBNE $C$L56, R0, 0
00000100     f1042280      LBBO &R0.b0, R2, 4, 4
00000104     11ffe0e0      AND R0, R0, 255
00000108     e10c2280      SBBO &R0.b0, R2, 12, 4
0000010c     21000000      JMP 
00000110                   $C$L56:
00000110     6901e006      QBNE $C$L57, R0, 1
00000114     f1042280      LBBO &R0.b0, R2, 4, 4
00000118     11ffe0ee      AND R14, R0, 255
0000011c     230000c3      JAL R3.w2, 
00000120     e10c228e      SBBO &R14.b0, R2, 12, 4
00000124     21000000      JMP 
00000128                   $C$L57:
00000128     f1042280      LBBO &R0.b0, R2, 4, 4
0000012c     11ffe0e0      AND R0, R0, 255
00000130     0902e0e0      LSL R0, R0, 2
00000134     240000e1      LDI R1, 0
00000138     f0e02180      LBBO &R0.b0, R1, R0, 4
0000013c     e1242280      SBBO &R0.b0, R2, 36, 4
00000140     f1042280      LBBO &R0.b0, R2, 4, 4
00000144     0b08e0e0      LSR R0, R0, 8
00000148     11ffe0e0      AND R0, R0, 255
0000014c     0902e0e0      LSL R0, R0, 2
00000150     f0e02181      LBBO &R1.b0, R1, R0, 4
00000154     15806161      XOR R1.b3, R1.b3, 128
00000158     f1242280      LBBO &R0.b0, R2, 36, 4
0000015c     15806060      XOR R0.b3, R0.b3, 128
00000160     60e1e007      QBGT $C$L17, R0, R1
00000164     240000e0      LDI R0, 0
00000168     f1002080      LBBO &R0.b0, R0, 0, 4
0000016c     5100e080      QBEQ $C$L78, R0, 0
00000170     2eff818e      XIN 255, &R14.b0, 4
00000174     230000c3      JAL R3.w2, 
00000178     21000000      JMP 
0000017c                   $C$L58:
0000017c     f1242280      LBBO &R0.b0, R2, 36, 4
00000180     f1042281      LBBO &R1.b0, R2, 4, 4
00000184     0b08e1e1      LSR R1, R1, 8
00000188     11ffe1e1      AND R1, R1, 255
0000018c     00e0e1e0      ADD R0, R1, R0
00000190     0101e0ee      ADD R14, R0, 1
00000194     230000c3      JAL R3.w2, 
00000198     e10c228e      SBBO &R14.b0, R2, 12, 4
0000019c                   $C$L59:
0000019c     f1202280      LBBO &R0.b0, R2, 32, 4
000001a0     0b10e0e0      LSR R0, R0, 16
000001a4     11ffe0e0      AND R0, R0, 255
000001a8     0b02e0e0      LSR R0, R0, 2
000001ac     1103e0e0      AND R0, R0, 3
000001b0     e1142280      SBBO &R0.b0, R2, 20, 4
000001b4     6900e006      QBNE $C$L60, R0, 0
000001b8     f1042280      LBBO &R0.b0, R2, 4, 4
000001bc     0b10e0e0      LSR R0, R0, 16
000001c0     11ffe0e0      AND R0, R0, 255
000001c4     e1102280      SBBO &R0.b0, R2, 16, 4
000001c8     21000000      JMP 
000001cc                   $C$L60:
000001cc     6901e007      QBNE $C$L61, R0, 1
000001d0     f1042280      LBBO &R0.b0, R2, 4, 4
000001d4     0b10e0e0      LSR R0, R0, 16
000001d8     11ffe0ee      AND R14, R0, 255
000001dc     230000c3      JAL R3.w2, 
000001e0     e110228e      SBBO &R14.b0, R2, 16, 4
000001e4     21000000      JMP 
000001e8                   $C$L61:
000001e8     f1042280      LBBO &R0.b0, R2, 4, 4
000001ec     0b10e0e0      LSR R0, R0, 16
000001f0     11ffe0e0      AND R0, R0, 255
000001f4     0902e0e0      LSL R0, R0, 2
000001f8     240000e1      LDI R1, 0
000001fc     f0e02180      LBBO &R0.b0, R1, R0, 4
00000200     e1242280      SBBO &R0.b0, R2, 36, 4
00000204     f1042280      LBBO &R0.b0, R2, 4, 4
00000208     0b18e0e0      LSR R0, R0, 24
0000020c     11ffe0e0      AND R0, R0, 255
00000210     0902e0e0      LSL R0, R0, 2
00000214     f0e02181      LBBO &R1.b0, R1, R0, 4
00000218     15806161      XOR R1.b3, R1.b3, 128
0000021c     f1242280      LBBO &R0.b0, R2, 36, 4
00000220     15806060      XOR R0.b3, R0.b3, 128
00000224     60e1e007      QBGT $C$L62, R0, R1
00000228     240000e0      LDI R0, 0
0000022c     f1002080      LBBO &R0.b0, R0, 0, 4
00000230     5100e04f      QBEQ $C$L78, R0, 0
00000234     2eff818e      XIN 255, &R14.b0, 4
00000238     230000c3      JAL R3.w2, 
0000023c     21000000      JMP 
00000240                   $C$L62:
00000240     f1242280      LBBO &R0.b0, R2, 36, 4
00000244     f1042281      LBBO &R1.b0, R2, 4, 4
00000248     0b18e1e1      LSR R1, R1, 24
0000024c     11ffe1e1      AND R1, R1, 255
00000250     00e0e1e0      ADD R0, R1, R0
00000254     0101e0ee      ADD R14, R0, 1
00000258     230000c3      JAL R3.w2, 
0000025c     e110228e      SBBO &R14.b0, R2, 16, 4
00000260     21000000      JMP 
00000264                   $C$L63:
00000264     2eff8180      XIN 255, &R0.b0, 4
00000268     f10c2281      LBBO &R1.b0, R2, 12, 4
0000026c     f108228e      LBBO &R14.b0, R2, 8, 4
00000270     68eee102      QBNE $C$L64, R1, R14
00000274     240001e0      LDI R0, 1
00000278                   $C$L64:
00000278     e11c2280      SBBO &R0.b0, R2, 28, 4
0000027c     21000000      JMP 
00000280                   $C$L65:
00000280     2eff8180      XIN 255, &R0.b0, 4
00000284     f10c2281      LBBO &R1.b0, R2, 12, 4
00000288     f108228e      LBBO &R14.b0, R2, 8, 4
0000028c     50eee102      QBEQ $C$L66, R1, R14
00000290     240001e0      LDI R0, 1
00000294                   $C$L66:
00000294     e11c2280      SBBO &R0.b0, R2, 28, 4
00000298     21000000      JMP 
0000029c                   $C$L67:
0000029c     2eff818e      XIN 255, &R14.b0, 4
000002a0     f10c2280      LBBO &R0.b0, R2, 12, 4
000002a4     15806060      XOR R0.b3, R0.b3, 128
000002a8     f1082281      LBBO &R1.b0, R2, 8, 4
000002ac     15806161      XOR R1.b3, R1.b3, 128
000002b0     48e1e002      QBLT $C$L68, R0, R1
000002b4     240001ee      LDI R14, 1
000002b8                   $C$L68:
000002b8     e11c228e      SBBO &R14.b0, R2, 28, 4
000002bc     21000000      JMP 
000002c0                   $C$L69:
000002c0     2eff818e      XIN 255, &R14.b0, 4
000002c4     f10c2280      LBBO &R0.b0, R2, 12, 4
000002c8     15806060      XOR R0.b3, R0.b3, 128
000002cc     f1082281      LBBO &R1.b0, R2, 8, 4
000002d0     15806161      XOR R1.b3, R1.b3, 128
000002d4     60e1e002      QBGT $C$L70, R0, R1
000002d8     240001ee      LDI R14, 1
000002dc                   $C$L70:
000002dc     e11c228e      SBBO &R14.b0, R2, 28, 4
000002e0     21000000      JMP 
000002e4                   $C$L71:
000002e4     2eff818e      XIN 255, &R14.b0, 4
000002e8     f10c2280      LBBO &R0.b0, R2, 12, 4
000002ec     15806060      XOR R0.b3, R0.b3, 128
000002f0     f1082281      LBBO &R1.b0, R2, 8, 4
000002f4     15806161      XOR R1.b3, R1.b3, 128
000002f8     58e1e002      QBLE $C$L72, R0, R1
000002fc     240001ee      LDI R14, 1
00000300                   $C$L72:
00000300     e11c228e      SBBO &R14.b0, R2, 28, 4
00000304     21000000      JMP 
00000308                   $C$L73:
00000308     2eff818e      XIN 255, &R14.b0, 4
0000030c     f10c2280      LBBO &R0.b0, R2, 12, 4
00000310     15806060      XOR R0.b3, R0.b3, 128
00000314     f1082281      LBBO &R1.b0, R2, 8, 4
00000318     15806161      XOR R1.b3, R1.b3, 128
0000031c     70e1e002      QBGE $C$L74, R0, R1
00000320     240001ee      LDI R14, 1
00000324                   $C$L74:
00000324     e11c228e      SBBO &R14.b0, R2, 28, 4
00000328     21000000      JMP 
0000032c                   $C$L75:
0000032c     240000e0      LDI R0, 0
00000330     e11c2280      SBBO &R0.b0, R2, 28, 4
00000334     21000000      JMP 
00000338                   $C$L76:
00000338     f1182280      LBBO &R0.b0, R2, 24, 4
0000033c     5700e0ca      QBEQ $C$L63, R0, 0
00000340     5701e0d0      QBEQ $C$L65, R0, 1
00000344     5702e0d6      QBEQ $C$L67, R0, 2
00000348     5703e0de      QBEQ $C$L69, R0, 3
0000034c     5704e0e6      QBEQ $C$L71, R0, 4
00000350     5705e0ee      QBEQ $C$L73, R0, 5
00000354     21000000      JMP 
00000358                   $C$L77:
00000358     f11c2280      LBBO &R0.b0, R2, 28, 4
0000035c     5100e004      QBEQ $C$L78, R0, 0
00000360     f1102280      LBBO &R0.b0, R2, 16, 4
00000364     240000e1      LDI R1, 0
00000368     e1002180      SBBO &R0.b0, R1, 0, 4
0000036c                   $C$L78:
0000036c     f12802c3      LBBO &R3.b2, R2, 40, 2
00000370     012ae2e2      ADD R2, R2, 42
00000374     20c30000      JMP R3.w2

TEXT Section .text:math_handler (Little Endian), 0x280 bytes at 0x0 
00000000                   math_handler:
00000000     0526e2e2      SUB R2, R2, 38
00000004     e12402c3      SBBO &R3.b2, R2, 36, 2
00000008     e104228f      SBBO &R15.b0, R2, 4, 4
0000000c     e100228e      SBBO &R14.b0, R2, 0, 4
00000010     f1002280      LBBO &R0.b0, R2, 0, 4
00000014     0b1fe0e1      LSR R1, R0, 31
00000018     00e1e0e1      ADD R1, R0, R1
0000001c     1d00e1e1      CLR R1, R1, 0
00000020     04e1e0e0      SUB R0, R0, R1
00000024     6900e015      QBNE $C$L81, R0, 0
00000028     f1042280      LBBO &R0.b0, R2, 4, 4
0000002c     0b08e0e0      LSR R0, R0, 8
00000030     11ffe0e0      AND R0, R0, 255
00000034     e1142280      SBBO &R0.b0, R2, 20, 4
00000038     0902e0e0      LSL R0, R0, 2
0000003c     240000e1      LDI R1, 0
00000040     f0e02180      LBBO &R0.b0, R1, R0, 4
00000044     e1082280      SBBO &R0.b0, R2, 8, 4
00000048     f1042280      LBBO &R0.b0, R2, 4, 4
0000004c     0b16e0e0      LSR R0, R0, 22
00000050     c900e006      QBBC $C$L4, R0, 0
00000054     f1042280      LBBO &R0.b0, R2, 4, 4
00000058     11ffe0e0      AND R0, R0, 255
0000005c     0902e0e0      LSL R0, R0, 2
00000060     f0e02180      LBBO &R0.b0, R1, R0, 4
00000064     21000000      JMP 
00000068                   $C$L79:
00000068     f1042280      LBBO &R0.b0, R2, 4, 4
0000006c     11ffe0e0      AND R0, R0, 255
00000070                   $C$L80:
00000070     e10c2280      SBBO &R0.b0, R2, 12, 4
00000074     21000000      JMP 
00000078                   $C$L81:
00000078     f1042280      LBBO &R0.b0, R2, 4, 4
0000007c     0b10e0e0      LSR R0, R0, 16
00000080     11ffe0e0      AND R0, R0, 255
00000084     0b06e0e0      LSR R0, R0, 6
00000088     e1182280      SBBO &R0.b0, R2, 24, 4
0000008c     6900e005      QBNE $C$L82, R0, 0
00000090     f1042280      LBBO &R0.b0, R2, 4, 4
00000094     11ffe0e0      AND R0, R0, 255
00000098     e1082280      SBBO &R0.b0, R2, 8, 4
0000009c     21000000      JMP 
000000a0                   $C$L82:
000000a0     6901e008      QBNE $C$L83, R0, 1
000000a4     f1042280      LBBO &R0.b0, R2, 4, 4
000000a8     11ffe0e0      AND R0, R0, 255
000000ac     e1142280      SBBO &R0.b0, R2, 20, 4
000000b0     f114228e      LBBO &R14.b0, R2, 20, 4
000000b4     230000c3      JAL R3.w2, 
000000b8     e108228e      SBBO &R14.b0, R2, 8, 4
000000bc     21000000      JMP 
000000c0                   $C$L83:
000000c0     f1042280      LBBO &R0.b0, R2, 4, 4
000000c4     11ffe0e0      AND R0, R0, 255
000000c8     0902e0e0      LSL R0, R0, 2
000000cc     240000e1      LDI R1, 0
000000d0     f0e02180      LBBO &R0.b0, R1, R0, 4
000000d4     e1202280      SBBO &R0.b0, R2, 32, 4
000000d8     f1042280      LBBO &R0.b0, R2, 4, 4
000000dc     0b08e0e0      LSR R0, R0, 8
000000e0     11ffe0e0      AND R0, R0, 255
000000e4     0902e0e0      LSL R0, R0, 2
000000e8     f0e02181      LBBO &R1.b0, R1, R0, 4
000000ec     15806161      XOR R1.b3, R1.b3, 128
000000f0     f1202280      LBBO &R0.b0, R2, 32, 4
000000f4     15806060      XOR R0.b3, R0.b3, 128
000000f8     60e1e007      QBGT $C$L84, R0, R1
000000fc     240000e0      LDI R0, 0
00000100     f1002080      LBBO &R0.b0, R0, 0, 4
00000104     5100e05c      QBEQ $C$L94, R0, 0
00000108     2eff818e      XIN 255, &R14.b0, 4
0000010c     230000c3      JAL R3.w2, 
00000110     21000000      JMP 
00000114                   $C$L84:
00000114     f1202280      LBBO &R0.b0, R2, 32, 4
00000118     f1042281      LBBO &R1.b0, R2, 4, 4
0000011c     0b08e1e1      LSR R1, R1, 8
00000120     11ffe1e1      AND R1, R1, 255
00000124     00e0e1e0      ADD R0, R1, R0
00000128     0101e0ee      ADD R14, R0, 1
0000012c     230000c3      JAL R3.w2, 
00000130     e108228e      SBBO &R14.b0, R2, 8, 4
00000134                   $C$L85:
00000134     f1042280      LBBO &R0.b0, R2, 4, 4
00000138     e11c2280      SBBO &R0.b0, R2, 28, 4
0000013c     230000c3      JAL R3.w2, 
00000140     e104228e      SBBO &R14.b0, R2, 4, 4
00000144     f11c2280      LBBO &R0.b0, R2, 28, 4
00000148     0b10e0e0      LSR R0, R0, 16
0000014c     11ffe0e0      AND R0, R0, 255
00000150     0b04e0e0      LSR R0, R0, 4
00000154     1103e0e0      AND R0, R0, 3
00000158     e1182280      SBBO &R0.b0, R2, 24, 4
0000015c     6900e005      QBNE $C$L86, R0, 0
00000160     f1042280      LBBO &R0.b0, R2, 4, 4
00000164     11ffe0e0      AND R0, R0, 255
00000168     e10c2280      SBBO &R0.b0, R2, 12, 4
0000016c     21000000      JMP 
00000170                   $C$L86:
00000170     6901e006      QBNE $C$L87, R0, 1
00000174     f1042280      LBBO &R0.b0, R2, 4, 4
00000178     11ffe0ee      AND R14, R0, 255
0000017c     230000c3      JAL R3.w2, 
00000180     e10c228e      SBBO &R14.b0, R2, 12, 4
00000184     21000000      JMP 
00000188                   $C$L87:
00000188     f1042280      LBBO &R0.b0, R2, 4, 4
0000018c     11ffe0e0      AND R0, R0, 255
00000190     0902e0e0      LSL R0, R0, 2
00000194     240000e1      LDI R1, 0
00000198     f0e02180      LBBO &R0.b0, R1, R0, 4
0000019c     e1202280      SBBO &R0.b0, R2, 32, 4
000001a0     f1042280      LBBO &R0.b0, R2, 4, 4
000001a4     0b08e0e0      LSR R0, R0, 8
000001a8     11ffe0e0      AND R0, R0, 255
000001ac     0902e0e0      LSL R0, R0, 2
000001b0     f0e02181      LBBO &R1.b0, R1, R0, 4
000001b4     15806161      XOR R1.b3, R1.b3, 128
000001b8     f1202280      LBBO &R0.b0, R2, 32, 4
000001bc     15806060      XOR R0.b3, R0.b3, 128
000001c0     60e1e007      QBGT $C$L88, R0, R1
000001c4     240000e0      LDI R0, 0
000001c8     f1002080      LBBO &R0.b0, R0, 0, 4
000001cc     5100e02a      QBEQ $C$L94, R0, 0
000001d0     2eff818e      XIN 255, &R14.b0, 4
000001d4     230000c3      JAL R3.w2, 
000001d8     21000000      JMP 
000001dc                   $C$L88:
000001dc     f1202280      LBBO &R0.b0, R2, 32, 4
000001e0     f1042281      LBBO &R1.b0, R2, 4, 4
000001e4     0b08e1e1      LSR R1, R1, 8
000001e8     11ffe1e1      AND R1, R1, 255
000001ec     00e0e1e0      ADD R0, R1, R0
000001f0     0101e0ee      ADD R14, R0, 1
000001f4     230000c3      JAL R3.w2, 
000001f8     e10c228e      SBBO &R14.b0, R2, 12, 4
000001fc     21000000      JMP 
00000200                   $C$L89:
00000200     f10c2280      LBBO &R0.b0, R2, 12, 4
00000204     f1082281      LBBO &R1.b0, R2, 8, 4
00000208     00e0e1e0      ADD R0, R1, R0
0000020c     e1102280      SBBO &R0.b0, R2, 16, 4
00000210     21000000      JMP 
00000214                   $C$L90:
00000214     f10c2280      LBBO &R0.b0, R2, 12, 4
00000218     f1082281      LBBO &R1.b0, R2, 8, 4
0000021c     04e0e1e0      SUB R0, R1, R0
00000220     e1102280      SBBO &R0.b0, R2, 16, 4
00000224     21000000      JMP 
00000228                   $C$L91:
00000228     f1082280      LBBO &R0.b0, R2, 8, 4
0000022c     e1102280      SBBO &R0.b0, R2, 16, 4
00000230     21000000      JMP 
00000234                   $C$L92:
00000234     f1002280      LBBO &R0.b0, R2, 0, 4
00000238     5730e0f2      QBEQ $C$L38, R0, 48
0000023c     5731e0f1      QBEQ $C$L38, R0, 49
00000240     5732e0f5      QBEQ $C$L90, R0, 50
00000244     5733e0f4      QBEQ $C$L90, R0, 51
00000248     21000000      JMP 
0000024c                   $C$L93:
0000024c     f1142280      LBBO &R0.b0, R2, 20, 4
00000250     0902e0e1      LSL R1, R0, 2
00000254     240000ee      LDI R14, 0
00000258     f1102280      LBBO &R0.b0, R2, 16, 4
0000025c     e0e12e80      SBBO &R0.b0, R14, R1, 4
00000260     240000e0      LDI R0, 0
00000264     f1002080      LBBO &R0.b0, R0, 0, 4
00000268     5100e003      QBEQ $C$L94, R0, 0
0000026c     f110228e      LBBO &R14.b0, R2, 16, 4
00000270     230000c3      JAL R3.w2, 
00000274                   $C$L94:
00000274     f12402c3      LBBO &R3.b2, R2, 36, 2
00000278     0126e2e2      ADD R2, R2, 38
0000027c     20c30000      JMP R3.w2

TEXT Section .text:handle_downcall (Little Endian), 0x1C0 bytes at 0x0 
00000000                   handle_downcall:
00000000     0518e2e2      SUB R2, R2, 24
00000004     e1142293      SBBO &R19.b0, R2, 20, 4
00000008     e1102292      SBBO &R18.b0, R2, 16, 4
0000000c     e10c2291      SBBO &R17.b0, R2, 12, 4
00000010     e1082290      SBBO &R16.b0, R2, 8, 4
00000014     e104228f      SBBO &R15.b0, R2, 4, 4
00000018     e100228e      SBBO &R14.b0, R2, 0, 4
0000001c     21000000      JMP 
00000020                   $C$L95:
00000020     f1042280      LBBO &R0.b0, R2, 4, 4
00000024     5100e003      QBEQ $C$L96, R0, 0
00000028     24fffffe      LDI R30, 65535
0000002c     21000000      JMP 
00000030                   $C$L96:
00000030     2eff819e      XIN 255, &R30.b0, 4
00000034     21000000      JMP 
00000038                   $C$L97:
00000038     240000e0      LDI R0, 0
0000003c     240000e1      LDI R1, 0
00000040     e1002180      SBBO &R0.b0, R1, 0, 4
00000044     240000e1      LDI R1, 0
00000048     e1002180      SBBO &R0.b0, R1, 0, 4
0000004c     2400ffc0      LDI R0.w2, 255
00000050     24ffff80      LDI R0.w0, 65535
00000054     2403c0e1      LDI R1, 960
00000058     e1002180      SBBO &R0.b0, R1, 0, 4
0000005c     91042080      LBCO &R0.b0, C0,  4, 4
00000060     1d04e0e0      CLR R0, R0, 4
00000064     81042080      SBCO &R0.b0, C0,  4, 4
00000068     f1042280      LBBO &R0.b0, R2, 4, 4
0000006c     240000e1      LDI R1, 0
00000070     e1002180      SBBO &R0.b0, R1, 0, 4
00000074     f1082280      LBBO &R0.b0, R2, 8, 4
00000078     240000e1      LDI R1, 0
0000007c     e1002180      SBBO &R0.b0, R1, 0, 4
00000080     240019e0      LDI R0, 25
00000084     240000e1      LDI R1, 0
00000088     f1002181      LBBO &R1.b0, R1, 0, 4
0000008c     e1002180      SBBO &R0.b0, R1, 0, 4
00000090     240001e0      LDI R0, 1
00000094     240000e1      LDI R1, 0
00000098     f1002181      LBBO &R1.b0, R1, 0, 4
0000009c     e1002180      SBBO &R0.b0, R1, 0, 4
000000a0     91042080      LBCO &R0.b0, C0,  4, 4
000000a4     1f04e0e0      SET R0, R0, 4
000000a8     81042080      SBCO &R0.b0, C0,  4, 4
000000ac     21000000      JMP 
000000b0                   $C$L98:
000000b0     f1042280      LBBO &R0.b0, R2, 4, 4
000000b4     5100e00b      QBEQ $C$L100, R0, 0
000000b8     240000e0      LDI R0, 0
000000bc     f1002080      LBBO &R0.b0, R0, 0, 4
000000c0     6900e004      QBNE $C$L99, R0, 0
000000c4     240000e0      LDI R0, 0
000000c8     240000e1      LDI R1, 0
000000cc     e1002180      SBBO &R0.b0, R1, 0, 4
000000d0                   $C$L99:
000000d0     240001e0      LDI R0, 1
000000d4     240000e1      LDI R1, 0
000000d8     e1002180      SBBO &R0.b0, R1, 0, 4
000000dc     21000000      JMP 
000000e0                   $C$L100:
000000e0     240000e0      LDI R0, 0
000000e4     240000e1      LDI R1, 0
000000e8     e1002180      SBBO &R0.b0, R1, 0, 4
000000ec     21000000      JMP 
000000f0                   $C$L101:
000000f0     240000e0      LDI R0, 0
000000f4     240000e1      LDI R1, 0
000000f8     e1002180      SBBO &R0.b0, R1, 0, 4
000000fc     240000e1      LDI R1, 0
00000100     e1002180      SBBO &R0.b0, R1, 0, 4
00000104     240000e1      LDI R1, 0
00000108     e1002180      SBBO &R0.b0, R1, 0, 4
0000010c     240001e0      LDI R0, 1
00000110     240000e1      LDI R1, 0
00000114     e1002180      SBBO &R0.b0, R1, 0, 4
00000118     91042080      LBCO &R0.b0, C0,  4, 4
0000011c     1d04e0e0      CLR R0, R0, 4
00000120     81042080      SBCO &R0.b0, C0,  4, 4
00000124     240001e0      LDI R0, 1
00000128     240000e1      LDI R1, 0
0000012c     f1002181      LBBO &R1.b0, R1, 0, 4
00000130     e1002180      SBBO &R0.b0, R1, 0, 4
00000134     91042080      LBCO &R0.b0, C0,  4, 4
00000138     1f04e0e0      SET R0, R0, 4
0000013c     81042080      SBCO &R0.b0, C0,  4, 4
00000140     21000000      JMP 
00000144                   $C$L102:
00000144     240000e0      LDI R0, 0
00000148     f1002080      LBBO &R0.b0, R0, 0, 4
0000014c     240000e1      LDI R1, 0
00000150     f1002181      LBBO &R1.b0, R1, 0, 4
00000154     12e0e1ee      OR R14, R1, R0
00000158     21000000      JMP 
0000015c                   $C$L103:
0000015c     f1042280      LBBO &R0.b0, R2, 4, 4
00000160     240000e1      LDI R1, 0
00000164     e1002180      SBBO &R0.b0, R1, 0, 4
00000168     21000000      JMP 
0000016c                   $C$L104:
0000016c     f1042280      LBBO &R0.b0, R2, 4, 4
00000170     240000e1      LDI R1, 0
00000174     e1002180      SBBO &R0.b0, R1, 0, 4
00000178     f1082280      LBBO &R0.b0, R2, 8, 4
0000017c     240000e1      LDI R1, 0
00000180     e1002180      SBBO &R0.b0, R1, 0, 4
00000184     21000000      JMP 
00000188                   $C$L105:
00000188     2eff818e      XIN 255, &R14.b0, 4
0000018c     21000000      JMP 
00000190                   $C$L106:
00000190     f1002280      LBBO &R0.b0, R2, 0, 4
00000194     5700e0a3      QBEQ $C$L95, R0, 0
00000198     5701e0a8      QBEQ $C$L97, R0, 1
0000019c     5702e0c5      QBEQ $C$L12, R0, 2
000001a0     5703e0d4      QBEQ $C$L50, R0, 3
000001a4     5704e0e8      QBEQ $C$L102, R0, 4
000001a8     5705e0ed      QBEQ $C$L15, R0, 5
000001ac     5706e0f0      QBEQ $C$L16, R0, 6
000001b0     21000000      JMP 
000001b4                   $C$L107:
000001b4     240001ee      LDI R14, 1
000001b8                   $C$L108:
000001b8     0118e2e2      ADD R2, R2, 24
000001bc     20c30000      JMP R3.w2

TEXT Section .text:check_event (Little Endian), 0x7C bytes at 0x0 
00000000                   check_event:
00000000     0502e2e2      SUB R2, R2, 2
00000004     e10002c3      SBBO &R3.b2, R2, 0, 2
00000008     24020080      LDI R0.w0, 512
0000000c     90802080      LBCO &R0.b0, C0, R0.w0, 4
00000010     c915e006      QBBC $C$L109, R0, 21
00000014     240015e0      LDI R0, 21
00000018     24002481      LDI R1.w0, 36
0000001c     80812080      SBCO &R0.b0, C0, R1.w0, 4
00000020     2400008e      LDI R14.w0, 0
00000024     230000c3      JAL R3.w2, 
00000028                   $C$L109:
00000028     91442080      LBCO &R0.b0, C0,  68, 4
0000002c     c900e011      QBBC $C$L80, R0, 0
00000030     240000e0      LDI R0, 0
00000034     81482080      SBCO &R0.b0, C0,  72, 4
00000038     91402080      LBCO &R0.b0, C0,  64, 4
0000003c     1d01e0e0      CLR R0, R0, 1
00000040     81402080      SBCO &R0.b0, C0,  64, 4
00000044     240001e0      LDI R0, 1
00000048     81442080      SBCO &R0.b0, C0,  68, 4
0000004c     240000e0      LDI R0, 0
00000050     f1002080      LBBO &R0.b0, R0, 0, 4
00000054     5100e007      QBEQ $C$L80, R0, 0
00000058     240001e0      LDI R0, 1
0000005c     240000e1      LDI R1, 0
00000060     e1002180      SBBO &R0.b0, R1, 0, 4
00000064     240000e0      LDI R0, 0
00000068     240000e1      LDI R1, 0
0000006c     e1002180      SBBO &R0.b0, R1, 0, 4
00000070                   $C$L110:
00000070     f10002c3      LBBO &R3.b2, R2, 0, 2
00000074     0102e2e2      ADD R2, R2, 2
00000078     20c30000      JMP R3.w2

TEXT Section .text:wait (Little Endian), 0x60 bytes at 0x0 
00000000                   wait:
00000000     0506e2e2      SUB R2, R2, 6
00000004     e10402c3      SBBO &R3.b2, R2, 4, 2
00000008     e100228e      SBBO &R14.b0, R2, 0, 4
0000000c     240000e0      LDI R0, 0
00000010     240000e1      LDI R1, 0
00000014     e1002180      SBBO &R0.b0, R1, 0, 4
00000018     240001e0      LDI R0, 1
0000001c     240000e1      LDI R1, 0
00000020     e1002180      SBBO &R0.b0, R1, 0, 4
00000024     91402080      LBCO &R0.b0, C0,  64, 4
00000028     1f01e0e0      SET R0, R0, 1
0000002c     81402080      SBCO &R0.b0, C0,  64, 4
00000030     f100228e      LBBO &R14.b0, R2, 0, 4
00000034     240003cf      LDI R15.w2, 3
00000038     240d408f      LDI R15.w0, 3392
0000003c     230000c3      JAL R3.w2, 
00000040     910c2080      LBCO &R0.b0, C0,  12, 4
00000044     00e0eee0      ADD R0, R14, R0
00000048     81482080      SBCO &R0.b0, C0,  72, 4
0000004c     240001e0      LDI R0, 1
00000050     81442080      SBCO &R0.b0, C0,  68, 4
00000054     f10402c3      LBBO &R3.b2, R2, 4, 2
00000058     0106e2e2      ADD R2, R2, 6
0000005c     20c30000      JMP R3.w2

TEXT Section .text:execute_instruction (Little Endian), 0x130 bytes at 0x0 
00000000                   execute_instruction:
00000000     050ae2e2      SUB R2, R2, 10
00000004     e10802c3      SBBO &R3.b2, R2, 8, 2
00000008     240000e0      LDI R0, 0
0000000c     f1002080      LBBO &R0.b0, R0, 0, 4
00000010     6900e013      QBNE $C$L111, R0, 0
00000014     91042080      LBCO &R0.b0, C0,  4, 4
00000018     1d04e0e0      CLR R0, R0, 4
0000001c     81042080      SBCO &R0.b0, C0,  4, 4
00000020     240000e0      LDI R0, 0
00000024     f1002080      LBBO &R0.b0, R0, 0, 4
00000028     240000e1      LDI R1, 0
0000002c     f1002181      LBBO &R1.b0, R1, 0, 4
00000030     0902e1e1      LSL R1, R1, 2
00000034     f0e02180      LBBO &R0.b0, R1, R0, 4
00000038     e1002280      SBBO &R0.b0, R2, 0, 4
0000003c     91042080      LBCO &R0.b0, C0,  4, 4
00000040     1f04e0e0      SET R0, R0, 4
00000044     81042080      SBCO &R0.b0, C0,  4, 4
00000048     240000e0      LDI R0, 0
0000004c     f1002081      LBBO &R1.b0, R0, 0, 4
00000050     0101e1e1      ADD R1, R1, 1
00000054     e1002081      SBBO &R1.b0, R0, 0, 4
00000058     21000000      JMP 
0000005c                   $C$L111:
0000005c     240000e0      LDI R0, 0
00000060     f1002080      LBBO &R0.b0, R0, 0, 4
00000064     e1002280      SBBO &R0.b0, R2, 0, 4
00000068                   $C$L112:
00000068     f1002280      LBBO &R0.b0, R2, 0, 4
0000006c     0b18e0e0      LSR R0, R0, 24
00000070     e1042280      SBBO &R0.b0, R2, 4, 4
00000074     21000000      JMP 
00000078                   $C$L113:
00000078     f104228e      LBBO &R14.b0, R2, 4, 4
0000007c     f100228f      LBBO &R15.b0, R2, 0, 4
00000080     230000c3      JAL R3.w2, 
00000084     21000000      JMP 
00000088                   $C$L114:
00000088     f104228e      LBBO &R14.b0, R2, 4, 4
0000008c     f100228f      LBBO &R15.b0, R2, 0, 4
00000090     230000c3      JAL R3.w2, 
00000094     21000000      JMP 
00000098                   $C$L115:
00000098     f104228e      LBBO &R14.b0, R2, 4, 4
0000009c     f100228f      LBBO &R15.b0, R2, 0, 4
000000a0     230000c3      JAL R3.w2, 
000000a4     21000000      JMP 
000000a8                   $C$L116:
000000a8     f104228e      LBBO &R14.b0, R2, 4, 4
000000ac     f100228f      LBBO &R15.b0, R2, 0, 4
000000b0     230000c3      JAL R3.w2, 
000000b4     21000000      JMP 
000000b8                   $C$L117:
000000b8     f104228e      LBBO &R14.b0, R2, 4, 4
000000bc     f100228f      LBBO &R15.b0, R2, 0, 4
000000c0     230000c3      JAL R3.w2, 
000000c4     21000000      JMP 
000000c8                   $C$L118:
000000c8     240000e0      LDI R0, 0
000000cc     240000e1      LDI R1, 0
000000d0     e1002180      SBBO &R0.b0, R1, 0, 4
000000d4     240000e1      LDI R1, 0
000000d8     e1002180      SBBO &R0.b0, R1, 0, 4
000000dc     240000e1      LDI R1, 0
000000e0     e1002180      SBBO &R0.b0, R1, 0, 4
000000e4     21000000      JMP 
000000e8                   $C$L119:
000000e8     5701e0e4      QBEQ $C$L81, R0, 1
000000ec     5702e0e3      QBEQ $C$L81, R0, 2
000000f0     5703e0e2      QBEQ $C$L81, R0, 3
000000f4     5704e0e5      QBEQ $C$L114, R0, 4
000000f8     5710e0e8      QBEQ $C$L11, R0, 16
000000fc     5711e0e7      QBEQ $C$L11, R0, 17
00000100     5712e0e6      QBEQ $C$L11, R0, 18
00000104     5713e0e9      QBEQ $C$L47, R0, 19
00000108     5714e0ec      QBEQ $C$L117, R0, 20
0000010c     5715e0eb      QBEQ $C$L117, R0, 21
00000110     5716e0ea      QBEQ $C$L117, R0, 22
00000114     577fe0ed      QBEQ $C$L48, R0, 127
00000118                   $C$L120:
00000118     240000e0      LDI R0, 0
0000011c     240000e1      LDI R1, 0
00000120     e1002180      SBBO &R0.b0, R1, 0, 4
00000124     f10802c3      LBBO &R3.b2, R2, 8, 2
00000128     010ae2e2      ADD R2, R2, 10
0000012c     20c30000      JMP R3.w2

TEXT Section .text:timer_init (Little Endian), 0x20 bytes at 0x0 
00000000                   timer_init:
00000000     240110e0      LDI R0, 272
00000004     81002080      SBCO &R0.b0, C0,  0, 4
00000008     240001e0      LDI R0, 1
0000000c     81442080      SBCO &R0.b0, C0,  68, 4
00000010     91002080      LBCO &R0.b0, C0,  0, 4
00000014     1f00e0e0      SET R0, R0, 0
00000018     81002080      SBCO &R0.b0, C0,  0, 4
0000001c     20c30000      JMP R3.w2

TEXT Section .text:main (Little Endian), 0x48 bytes at 0x0 
00000000                   main:
00000000     0502e2e2      SUB R2, R2, 2
00000004     e10002c3      SBBO &R3.b2, R2, 0, 2
00000008     230000c3      JAL R3.w2, 
0000000c                   $C$L121:
0000000c     230000c3      JAL R3.w2, 
00000010     240000e0      LDI R0, 0
00000014     f1002080      LBBO &R0.b0, R0, 0, 4
00000018     6900e004      QBNE $C$L109, R0, 0
0000001c     240000e0      LDI R0, 0
00000020     f1002080      LBBO &R0.b0, R0, 0, 4
00000024     5700e0fa      QBEQ $C$L121, R0, 0
00000028                   $C$L122:
00000028     230000c3      JAL R3.w2, 
0000002c     240000e0      LDI R0, 0
00000030     f100208e      LBBO &R14.b0, R0, 0, 4
00000034     230000c3      JAL R3.w2, 
00000038     240000e0      LDI R0, 0
0000003c     f100208e      LBBO &R14.b0, R0, 0, 4
00000040     230000c3      JAL R3.w2, 
00000044     21000000      JMP 
